; Function Attrs: null_pointer_is_valid sspstrong uwtable
define internal fastcc noundef i32 @try_get_ber_length(ptr noundef %0, i32 noundef %1, ptr noundef writeonly captures(address_is_null) %2, ptr noundef writeonly captures(address_is_null) %3, i32 noundef %4) unnamed_addr #0 {
  %6 = alloca i32, align 4
  call void @llvm.lifetime.start.p0(i64 4, ptr nonnull %6) #14
  %7 = icmp sgt i32 %4, 500
  br i1 %7, label %8, label %9

8:                                                ; preds = %5
  tail call void @except_throw(i64 noundef 1, i64 noundef 3, ptr noundef null) #15
  unreachable

9:                                                ; preds = %5
  %10 = tail call zeroext i8 @tvb_get_uint8(ptr noundef %0, i32 noundef %1)
  %11 = add i32 %1, 1
  %.not = icmp sgt i8 %10, -1
  br i1 %.not, label %12, label %14

12:                                               ; preds = %9
  %13 = zext nneg i8 %10 to i32
  br label %.loopexit

14:                                               ; preds = %9
  %15 = and i8 %10, 127
  %.not50 = icmp eq i8 %15, 0
  br i1 %.not50, label %.preheader, label %.preheader57

.preheader:                                       ; preds = %14
  %16 = add nsw i32 %4, 1
  br label %23

.preheader57:                                     ; preds = %14, %.preheader57
  %.161 = phi i32 [ %19, %.preheader57 ], [ %11, %14 ]
  %.14260 = phi i32 [ %22, %.preheader57 ], [ 0, %14 ]
  %.04459 = phi i8 [ %17, %.preheader57 ], [ %15, %14 ]
  %17 = add nsw i8 %.04459, -1
  %18 = tail call zeroext i8 @tvb_get_uint8(ptr noundef %0, i32 noundef %.161)
  %19 = add i32 %.161, 1
  %20 = shl i32 %.14260, 8
  %21 = zext i8 %18 to i32
  %22 = or disjoint i32 %20, %21
  %.not54 = icmp eq i8 %17, 0
  br i1 %.not54, label %.loopexit, label %.preheader57, !llvm.loop !14

23:                                               ; preds = %.preheader, %get_ber_identifier.exit
  %.243 = phi i32 [ %47, %get_ber_identifier.exit ], [ 0, %.preheader ]
  %.2 = phi i32 [ %48, %get_ber_identifier.exit ], [ %11, %.preheader ]
  %24 = call zeroext i8 @tvb_get_uint8(ptr noundef %0, i32 noundef %.2)
  %.not51 = icmp eq i8 %24, 0
  %25 = add i32 %.2, 1
  br i1 %.not51, label %26, label %.critedge

26:                                               ; preds = %23
  %27 = call zeroext i8 @tvb_get_uint8(ptr noundef %0, i32 noundef %25)
  %.not52 = icmp eq i8 %27, 0
  br i1 %.not52, label %50, label %.critedge

.critedge:                                        ; preds = %23, %26
  %28 = call zeroext i8 @tvb_get_uint8(ptr noundef %0, i32 noundef %.2)
  %29 = lshr i8 %28, 6
  %30 = lshr i8 %28, 5
  %.lobit.i = and i8 %30, 1
  %31 = and i8 %28, 31
  %32 = zext nneg i8 %31 to i32
  %33 = icmp eq i8 %31, 31
  br i1 %33, label %.preheader.i, label %get_ber_identifier.exit

.preheader.i:                                     ; preds = %.critedge, %36
  %.129.i = phi i32 [ %38, %36 ], [ %25, %.critedge ]
  %.1.i = phi i32 [ %42, %36 ], [ 0, %.critedge ]
  %34 = call i32 @tvb_reported_length_remaining(ptr noundef %0, i32 noundef %.129.i)
  %35 = icmp sgt i32 %34, 0
  br i1 %35, label %36, label %get_ber_identifier.exit

36:                                               ; preds = %.preheader.i
  %37 = call zeroext i8 @tvb_get_uint8(ptr noundef %0, i32 noundef %.129.i)
  %38 = add i32 %.129.i, 1
  %39 = shl i32 %.1.i, 7
  %40 = and i8 %37, 127
  %41 = zext nneg i8 %40 to i32
  %42 = or disjoint i32 %39, %41
  %.not.i = icmp sgt i8 %37, -1
  br i1 %.not.i, label %get_ber_identifier.exit, label %.preheader.i, !llvm.loop !6

get_ber_identifier.exit:                          ; preds = %.preheader.i, %36, %.critedge
  %.028.i = phi i32 [ %25, %.critedge ], [ %38, %36 ], [ %.129.i, %.preheader.i ]
  %.0.i = phi i32 [ %32, %.critedge ], [ %42, %36 ], [ %.1.i, %.preheader.i ]
  store i8 %29, ptr @last_class, align 1
  store i8 %.lobit.i, ptr @last_pc, align 1
  store i32 %.0.i, ptr @last_tag, align 4
  %43 = call fastcc i32 @try_get_ber_length(ptr noundef %0, i32 noundef %.028.i, ptr noundef nonnull %6, ptr noundef null, i32 noundef %16)
  %44 = load i32, ptr %6, align 4
  %45 = sub i32 %.243, %.2
  %46 = add i32 %45, %43
  %47 = add i32 %46, %44
  %48 = add i32 %44, %43
  %.not53 = icmp sgt i32 %48, %.2
  br i1 %.not53, label %23, label %49, !llvm.loop !15

49:                                               ; preds = %get_ber_identifier.exit
  call void @except_throw(i64 noundef 1, i64 noundef 3, ptr noundef null) #15
  unreachable

50:                                               ; preds = %26
  %51 = add i32 %.243, 2
  br label %.loopexit

.loopexit:                                        ; preds = %.preheader57, %50, %12
  %.041 = phi i32 [ %51, %50 ], [ %13, %12 ], [ %22, %.preheader57 ]
  %.040 = phi i8 [ 1, %50 ], [ 0, %12 ], [ 0, %.preheader57 ]
  %.0 = phi i32 [ %11, %50 ], [ %11, %12 ], [ %19, %.preheader57 ]
  %.not55 = icmp eq ptr %2, null
  br i1 %.not55, label %53, label %52

52:                                               ; preds = %.loopexit
  %spec.store.select = call i32 @llvm.umin.i32(i32 %.041, i32 2147483647)
  store i32 %spec.store.select, ptr %2, align 4
  br label %53

53:                                               ; preds = %52, %.loopexit
  %.not56 = icmp eq ptr %3, null
  br i1 %.not56, label %55, label %54

54:                                               ; preds = %53
  store i8 %.040, ptr %3, align 1
  br label %55

55:                                               ; preds = %54, %53
  call void @llvm.lifetime.end.p0(i64 4, ptr nonnull %6) #14
  ret i32 %.0
}